target datalayout = "e-m:e-p270:32:32-p271:32:32-p272:64:64-i64:64-i128:128-f80:128-n8:16:32:64-S128"
target triple = "x86_64-pc-linux-gnu"

%struct.H5O_token_t = type { [16 x i8] }
%struct.H5Tref_dsetreg = type { %struct.H5O_token_t, ptr }

@H5T_init_g = external global i8, align 1
@H5_libterm_g = external global i8, align 1
@.str = private unnamed_addr constant [100 x i8] c"generated/home/dtcxzyw/WorkSpace/Projects/compilers/llvm-opt-benchmark/bench/hdf5/hdf5/src/H5Tref.c\00", align 1
@H5E_REFERENCE_g = external global i64, align 8
@H5E_BADTYPE_g = external global i64, align 8
@H5E_ARGS_g = external global i64, align 8
@.str.4 = private unnamed_addr constant [19 x i8] c"invalid VOL object\00", align 1
@H5E_CANTDECODE_g = external global i64, align 8
@.str.24 = private unnamed_addr constant [29 x i8] c"unable to get object address\00", align 1
@__func__.H5T__ref_dsetreg_disk_read = private unnamed_addr constant [27 x i8] c"H5T__ref_dsetreg_disk_read\00", align 1

; Function Attrs: nounwind uwtable
define internal i32 @H5T__ref_dsetreg_disk_read(ptr noundef %0, ptr noundef %1, i64 noundef %2, ptr noundef %3, ptr noundef %4, i64 noundef %5) #0 {
  %7 = alloca ptr, align 8
  %8 = alloca ptr, align 8
  %9 = alloca i64, align 8
  %10 = alloca ptr, align 8
  %11 = alloca ptr, align 8
  %12 = alloca i64, align 8
  %13 = alloca ptr, align 8
  %14 = alloca ptr, align 8
  %15 = alloca i32, align 4
  %16 = alloca i8, align 1
  store ptr %0, ptr %7, align 8, !tbaa !8
  store ptr %1, ptr %8, align 8, !tbaa !39
  store i64 %2, ptr %9, align 8, !tbaa !28
  store ptr %3, ptr %10, align 8, !tbaa !8
  store ptr %4, ptr %11, align 8, !tbaa !39
  store i64 %5, ptr %12, align 8, !tbaa !28
  call void @llvm.lifetime.start.p0(i64 8, ptr %13) #8
  call void @llvm.lifetime.start.p0(i64 8, ptr %14) #8
  %17 = load ptr, ptr %11, align 8, !tbaa !39
  store ptr %17, ptr %14, align 8, !tbaa !48
  call void @llvm.lifetime.start.p0(i64 4, ptr %15) #8
  store i32 0, ptr %15, align 4, !tbaa !10
  call void @llvm.lifetime.start.p0(i64 1, ptr %16) #8
  store i8 0, ptr %16, align 1, !tbaa !12
  %18 = load i8, ptr @H5T_init_g, align 1, !tbaa !12, !range !14, !noundef !15
  %19 = trunc i8 %18 to i1
  br i1 %19, label %24, label %20

20:                                               ; preds = %6
  %21 = load i8, ptr @H5_libterm_g, align 1, !tbaa !12, !range !14, !noundef !15
  %22 = trunc i8 %21 to i1
  %23 = xor i1 %22, true
  br label %24

24:                                               ; preds = %20, %6
  %25 = phi i1 [ true, %6 ], [ %23, %20 ]
  %26 = xor i1 %25, true
  %27 = xor i1 %26, true
  %28 = zext i1 %27 to i32
  %29 = sext i32 %28 to i64
  %30 = call i64 @llvm.expect.i64(i64 %29, i64 1)
  %31 = icmp ne i64 %30, 0
  br i1 %31, label %32, label %91

32:                                               ; preds = %24
  br label %33

33:                                               ; preds = %32
  br label %34

34:                                               ; preds = %33
  br label %35

35:                                               ; preds = %34
  %36 = load ptr, ptr %7, align 8, !tbaa !8
  %37 = call ptr @H5VL_object_data(ptr noundef %36)
  store ptr %37, ptr %13, align 8, !tbaa !30
  %38 = icmp eq ptr null, %37
  br i1 %38, label %39, label %58

39:                                               ; preds = %35
  br label %40

40:                                               ; preds = %39
  br label %41

41:                                               ; preds = %40
  br label %42

42:                                               ; preds = %41
  %43 = load i64, ptr @H5E_ARGS_g, align 8, !tbaa !28
  %44 = load i64, ptr @H5E_BADTYPE_g, align 8, !tbaa !28
  %45 = call i32 (ptr, ptr, i32, i64, i64, ptr, ...) @H5E_printf_stack(ptr noundef @.str, ptr noundef @__func__.H5T__ref_dsetreg_disk_read, i32 noundef 1319, i64 noundef %43, i64 noundef %44, ptr noundef @.str.4)
  br label %46

46:                                               ; preds = %42
  br label %47

47:                                               ; preds = %46
  store i8 1, ptr %16, align 1, !tbaa !12
  %48 = load i8, ptr %16, align 1, !tbaa !12, !range !14, !noundef !15
  %49 = trunc i8 %48 to i1
  %50 = zext i1 %49 to i8
  store i8 %50, ptr %16, align 1, !tbaa !12
  br label %51

51:                                               ; preds = %47
  br label %52

52:                                               ; preds = %51
  br label %53

53:                                               ; preds = %52
  store i32 -1, ptr %15, align 4, !tbaa !10
  br label %90

54:                                               ; No predecessors!
  br label %55

55:                                               ; preds = %54
  br label %56

56:                                               ; preds = %55
  br label %57

57:                                               ; preds = %56
  br label %58

58:                                               ; preds = %57, %35
  %59 = load ptr, ptr %13, align 8, !tbaa !30
  %60 = load ptr, ptr %8, align 8, !tbaa !39
  %61 = load ptr, ptr %14, align 8, !tbaa !48
  %62 = getelementptr inbounds nuw %struct.H5Tref_dsetreg, ptr %61, i32 0, i32 0
  %63 = load ptr, ptr %13, align 8, !tbaa !30
  %64 = call zeroext i8 @H5F_sizeof_addr(ptr noundef %63)
  %65 = zext i8 %64 to i64
  %66 = load ptr, ptr %14, align 8, !tbaa !48
  %67 = getelementptr inbounds nuw %struct.H5Tref_dsetreg, ptr %66, i32 0, i32 1
  %68 = call i32 @H5R__decode_token_region_compat(ptr noundef %59, ptr noundef %60, ptr noundef %9, ptr noundef %62, i64 noundef %65, ptr noundef %67)
  %69 = icmp slt i32 %68, 0
  br i1 %69, label %70, label %89

70:                                               ; preds = %58
  br label %71

71:                                               ; preds = %70
  br label %72

72:                                               ; preds = %71
  br label %73

73:                                               ; preds = %72
  %74 = load i64, ptr @H5E_REFERENCE_g, align 8, !tbaa !28
  %75 = load i64, ptr @H5E_CANTDECODE_g, align 8, !tbaa !28
  %76 = call i32 (ptr, ptr, i32, i64, i64, ptr, ...) @H5E_printf_stack(ptr noundef @.str, ptr noundef @__func__.H5T__ref_dsetreg_disk_read, i32 noundef 1326, i64 noundef %74, i64 noundef %75, ptr noundef @.str.24)
  br label %77

77:                                               ; preds = %73
  br label %78

78:                                               ; preds = %77
  store i8 1, ptr %16, align 1, !tbaa !12
  %79 = load i8, ptr %16, align 1, !tbaa !12, !range !14, !noundef !15
  %80 = trunc i8 %79 to i1
  %81 = zext i1 %80 to i8
  store i8 %81, ptr %16, align 1, !tbaa !12
  br label %82

82:                                               ; preds = %78
  br label %83

83:                                               ; preds = %82
  br label %84

84:                                               ; preds = %83
  store i32 -1, ptr %15, align 4, !tbaa !10
  br label %90

85:                                               ; No predecessors!
  br label %86

86:                                               ; preds = %85
  br label %87

87:                                               ; preds = %86
  br label %88

88:                                               ; preds = %87
  br label %89

89:                                               ; preds = %88, %58
  br label %90

90:                                               ; preds = %89, %84, %53
  br label %91

91:                                               ; preds = %90, %24
  %92 = load i32, ptr %15, align 4, !tbaa !10
  call void @llvm.lifetime.end.p0(i64 1, ptr %16) #8
  call void @llvm.lifetime.end.p0(i64 4, ptr %15) #8
  call void @llvm.lifetime.end.p0(i64 8, ptr %14) #8
  call void @llvm.lifetime.end.p0(i64 8, ptr %13) #8
  ret i32 %92
}